target datalayout = "e-m:e-p270:32:32-p271:32:32-p272:64:64-i64:64-i128:128-f80:128-n8:16:32:64-S128"
target triple = "x86_64-pc-linux-gnu"

%struct._object = type { %union.anon, ptr }
%union.anon = type { i64 }
%struct.PyVarObject = type { %struct._object, i64 }
%struct.PyBytesObject = type { %struct.PyVarObject, i64, [1 x i8] }
%struct.WFILE = type { ptr, i32, i32, ptr, ptr, ptr, ptr, ptr, i32, i32 }

; Function Attrs: inlinehint nounwind uwtable
define internal i64 @Py_SIZE(ptr noundef %0) #5 {
  %2 = alloca ptr, align 8
  store ptr %0, ptr %2, align 8, !tbaa !25
  %3 = load ptr, ptr %2, align 8, !tbaa !25
  %4 = getelementptr inbounds nuw %struct.PyVarObject, ptr %3, i32 0, i32 1
  %5 = load i64, ptr %4, align 8, !tbaa !45
  ret i64 %5
}

; Function Attrs: inlinehint nounwind uwtable
define internal ptr @PyBytes_AS_STRING(ptr noundef %0) #5 {
  %2 = alloca ptr, align 8
  store ptr %0, ptr %2, align 8, !tbaa !25
  %3 = load ptr, ptr %2, align 8, !tbaa !25
  %4 = getelementptr inbounds nuw %struct.PyBytesObject, ptr %3, i32 0, i32 2
  %5 = getelementptr inbounds [1 x i8], ptr %4, i64 0, i64 0
  ret ptr %5
}

; Function Attrs: inlinehint nounwind uwtable
define internal i64 @PyBytes_GET_SIZE(ptr noundef %0) #5 {
  %2 = alloca ptr, align 8
  %3 = alloca ptr, align 8
  store ptr %0, ptr %2, align 8, !tbaa !25
  call void @llvm.lifetime.start.p0(i64 8, ptr %3) #11
  %4 = load ptr, ptr %2, align 8, !tbaa !25
  store ptr %4, ptr %3, align 8, !tbaa !23
  %5 = load ptr, ptr %3, align 8, !tbaa !23
  %6 = call i64 @Py_SIZE(ptr noundef %5)
  call void @llvm.lifetime.end.p0(i64 8, ptr %3) #11
  ret i64 %6
}

; Function Attrs: nounwind uwtable
define internal i32 @w_reserve(ptr noundef %0, i64 noundef %1) #0 {
  %3 = alloca i32, align 4
  %4 = alloca ptr, align 8
  %5 = alloca i64, align 8
  %6 = alloca i64, align 8
  %7 = alloca i64, align 8
  %8 = alloca i64, align 8
  %9 = alloca i32, align 4
  store ptr %0, ptr %4, align 8, !tbaa !23
  store i64 %1, ptr %5, align 8, !tbaa !4
  call void @llvm.lifetime.start.p0(i64 8, ptr %6) #11
  call void @llvm.lifetime.start.p0(i64 8, ptr %7) #11
  call void @llvm.lifetime.start.p0(i64 8, ptr %8) #11
  %10 = load ptr, ptr %4, align 8, !tbaa !23
  %11 = getelementptr inbounds nuw %struct.WFILE, ptr %10, i32 0, i32 4
  %12 = load ptr, ptr %11, align 8, !tbaa !19
  %13 = icmp eq ptr %12, null
  br i1 %13, label %14, label %15

14:                                               ; preds = %2
  store i32 0, ptr %3, align 4
  store i32 1, ptr %9, align 4
  br label %110

15:                                               ; preds = %2
  %16 = load ptr, ptr %4, align 8, !tbaa !23
  %17 = getelementptr inbounds nuw %struct.WFILE, ptr %16, i32 0, i32 0
  %18 = load ptr, ptr %17, align 8, !tbaa !13
  %19 = icmp ne ptr %18, null
  br i1 %19, label %20, label %34

20:                                               ; preds = %15
  %21 = load ptr, ptr %4, align 8, !tbaa !23
  call void @w_flush(ptr noundef %21)
  %22 = load i64, ptr %5, align 8, !tbaa !4
  %23 = load ptr, ptr %4, align 8, !tbaa !23
  %24 = getelementptr inbounds nuw %struct.WFILE, ptr %23, i32 0, i32 5
  %25 = load ptr, ptr %24, align 8, !tbaa !20
  %26 = load ptr, ptr %4, align 8, !tbaa !23
  %27 = getelementptr inbounds nuw %struct.WFILE, ptr %26, i32 0, i32 4
  %28 = load ptr, ptr %27, align 8, !tbaa !19
  %29 = ptrtoint ptr %25 to i64
  %30 = ptrtoint ptr %28 to i64
  %31 = sub i64 %29, %30
  %32 = icmp sle i64 %22, %31
  %33 = zext i1 %32 to i32
  store i32 %33, ptr %3, align 4
  store i32 1, ptr %9, align 4
  br label %110

34:                                               ; preds = %15
  %35 = load ptr, ptr %4, align 8, !tbaa !23
  %36 = getelementptr inbounds nuw %struct.WFILE, ptr %35, i32 0, i32 4
  %37 = load ptr, ptr %36, align 8, !tbaa !19
  %38 = load ptr, ptr %4, align 8, !tbaa !23
  %39 = getelementptr inbounds nuw %struct.WFILE, ptr %38, i32 0, i32 6
  %40 = load ptr, ptr %39, align 8, !tbaa !18
  %41 = ptrtoint ptr %37 to i64
  %42 = ptrtoint ptr %40 to i64
  %43 = sub i64 %41, %42
  store i64 %43, ptr %6, align 8, !tbaa !4
  %44 = load ptr, ptr %4, align 8, !tbaa !23
  %45 = getelementptr inbounds nuw %struct.WFILE, ptr %44, i32 0, i32 3
  %46 = load ptr, ptr %45, align 8, !tbaa !44
  %47 = call i64 @PyBytes_GET_SIZE(ptr noundef %46)
  store i64 %47, ptr %7, align 8, !tbaa !4
  %48 = load i64, ptr %7, align 8, !tbaa !4
  %49 = icmp sgt i64 %48, 16777216
  br i1 %49, label %50, label %53

50:                                               ; preds = %34
  %51 = load i64, ptr %7, align 8, !tbaa !4
  %52 = ashr i64 %51, 3
  store i64 %52, ptr %8, align 8, !tbaa !4
  br label %56

53:                                               ; preds = %34
  %54 = load i64, ptr %7, align 8, !tbaa !4
  %55 = add i64 %54, 1024
  store i64 %55, ptr %8, align 8, !tbaa !4
  br label %56

56:                                               ; preds = %53, %50
  %57 = load i64, ptr %8, align 8, !tbaa !4
  %58 = load i64, ptr %5, align 8, !tbaa !4
  %59 = icmp sgt i64 %57, %58
  br i1 %59, label %60, label %62

60:                                               ; preds = %56
  %61 = load i64, ptr %8, align 8, !tbaa !4
  br label %64

62:                                               ; preds = %56
  %63 = load i64, ptr %5, align 8, !tbaa !4
  br label %64

64:                                               ; preds = %62, %60
  %65 = phi i64 [ %61, %60 ], [ %63, %62 ]
  store i64 %65, ptr %8, align 8, !tbaa !4
  %66 = load i64, ptr %8, align 8, !tbaa !4
  %67 = load i64, ptr %7, align 8, !tbaa !4
  %68 = sub i64 9223372036854775807, %67
  %69 = icmp sgt i64 %66, %68
  br i1 %69, label %70, label %73

70:                                               ; preds = %64
  %71 = load ptr, ptr %4, align 8, !tbaa !23
  %72 = getelementptr inbounds nuw %struct.WFILE, ptr %71, i32 0, i32 1
  store i32 3, ptr %72, align 8, !tbaa !21
  store i32 0, ptr %3, align 4
  store i32 1, ptr %9, align 4
  br label %110

73:                                               ; preds = %64
  %74 = load i64, ptr %8, align 8, !tbaa !4
  %75 = load i64, ptr %7, align 8, !tbaa !4
  %76 = add i64 %75, %74
  store i64 %76, ptr %7, align 8, !tbaa !4
  %77 = load ptr, ptr %4, align 8, !tbaa !23
  %78 = getelementptr inbounds nuw %struct.WFILE, ptr %77, i32 0, i32 3
  %79 = load i64, ptr %7, align 8, !tbaa !4
  %80 = call i32 @_PyBytes_Resize(ptr noundef %78, i64 noundef %79)
  %81 = icmp ne i32 %80, 0
  br i1 %81, label %82, label %89

82:                                               ; preds = %73
  %83 = load ptr, ptr %4, align 8, !tbaa !23
  %84 = getelementptr inbounds nuw %struct.WFILE, ptr %83, i32 0, i32 6
  store ptr null, ptr %84, align 8, !tbaa !18
  %85 = load ptr, ptr %4, align 8, !tbaa !23
  %86 = getelementptr inbounds nuw %struct.WFILE, ptr %85, i32 0, i32 4
  store ptr null, ptr %86, align 8, !tbaa !19
  %87 = load ptr, ptr %4, align 8, !tbaa !23
  %88 = getelementptr inbounds nuw %struct.WFILE, ptr %87, i32 0, i32 5
  store ptr null, ptr %88, align 8, !tbaa !20
  store i32 0, ptr %3, align 4
  store i32 1, ptr %9, align 4
  br label %110

89:                                               ; preds = %73
  %90 = load ptr, ptr %4, align 8, !tbaa !23
  %91 = getelementptr inbounds nuw %struct.WFILE, ptr %90, i32 0, i32 3
  %92 = load ptr, ptr %91, align 8, !tbaa !44
  %93 = call ptr @PyBytes_AS_STRING(ptr noundef %92)
  %94 = load ptr, ptr %4, align 8, !tbaa !23
  %95 = getelementptr inbounds nuw %struct.WFILE, ptr %94, i32 0, i32 6
  store ptr %93, ptr %95, align 8, !tbaa !18
  %96 = load ptr, ptr %4, align 8, !tbaa !23
  %97 = getelementptr inbounds nuw %struct.WFILE, ptr %96, i32 0, i32 6
  %98 = load ptr, ptr %97, align 8, !tbaa !18
  %99 = load i64, ptr %6, align 8, !tbaa !4
  %100 = getelementptr i8, ptr %98, i64 %99
  %101 = load ptr, ptr %4, align 8, !tbaa !23
  %102 = getelementptr inbounds nuw %struct.WFILE, ptr %101, i32 0, i32 4
  store ptr %100, ptr %102, align 8, !tbaa !19
  %103 = load ptr, ptr %4, align 8, !tbaa !23
  %104 = getelementptr inbounds nuw %struct.WFILE, ptr %103, i32 0, i32 6
  %105 = load ptr, ptr %104, align 8, !tbaa !18
  %106 = load i64, ptr %7, align 8, !tbaa !4
  %107 = getelementptr i8, ptr %105, i64 %106
  %108 = load ptr, ptr %4, align 8, !tbaa !23
  %109 = getelementptr inbounds nuw %struct.WFILE, ptr %108, i32 0, i32 5
  store ptr %107, ptr %109, align 8, !tbaa !20
  store i32 1, ptr %3, align 4
  store i32 1, ptr %9, align 4
  br label %110

110:                                              ; preds = %89, %82, %70, %20, %14
  call void @llvm.lifetime.end.p0(i64 8, ptr %8) #11
  call void @llvm.lifetime.end.p0(i64 8, ptr %7) #11
  call void @llvm.lifetime.end.p0(i64 8, ptr %6) #11
  %111 = load i32, ptr %3, align 4
  ret i32 %111
}

; Function Attrs: nounwind uwtable
define internal void @w_flush(ptr noundef %0) #0 {
  %2 = alloca ptr, align 8
  store ptr %0, ptr %2, align 8, !tbaa !23
  %3 = load ptr, ptr %2, align 8, !tbaa !23
  %4 = getelementptr inbounds nuw %struct.WFILE, ptr %3, i32 0, i32 6
  %5 = load ptr, ptr %4, align 8, !tbaa !18
  %6 = load ptr, ptr %2, align 8, !tbaa !23
  %7 = getelementptr inbounds nuw %struct.WFILE, ptr %6, i32 0, i32 4
  %8 = load ptr, ptr %7, align 8, !tbaa !19
  %9 = load ptr, ptr %2, align 8, !tbaa !23
  %10 = getelementptr inbounds nuw %struct.WFILE, ptr %9, i32 0, i32 6
  %11 = load ptr, ptr %10, align 8, !tbaa !18
  %12 = ptrtoint ptr %8 to i64
  %13 = ptrtoint ptr %11 to i64
  %14 = sub i64 %12, %13
  %15 = load ptr, ptr %2, align 8, !tbaa !23
  %16 = getelementptr inbounds nuw %struct.WFILE, ptr %15, i32 0, i32 0
  %17 = load ptr, ptr %16, align 8, !tbaa !13
  %18 = call i64 @fwrite(ptr noundef %5, i64 noundef 1, i64 noundef %14, ptr noundef %17)
  %19 = load ptr, ptr %2, align 8, !tbaa !23
  %20 = getelementptr inbounds nuw %struct.WFILE, ptr %19, i32 0, i32 6
  %21 = load ptr, ptr %20, align 8, !tbaa !18
  %22 = load ptr, ptr %2, align 8, !tbaa !23
  %23 = getelementptr inbounds nuw %struct.WFILE, ptr %22, i32 0, i32 4
  store ptr %21, ptr %23, align 8, !tbaa !19
  ret void
}

; Function Attrs: nounwind uwtable
define internal void @w_string(ptr noundef %0, i64 noundef %1, ptr noundef %2) #0 {
  %4 = alloca ptr, align 8
  %5 = alloca i64, align 8
  %6 = alloca ptr, align 8
  %7 = alloca i64, align 8
  %8 = alloca i32, align 4
  store ptr %0, ptr %4, align 8, !tbaa !23
  store i64 %1, ptr %5, align 8, !tbaa !4
  store ptr %2, ptr %6, align 8, !tbaa !23
  call void @llvm.lifetime.start.p0(i64 8, ptr %7) #11
  %9 = load i64, ptr %5, align 8, !tbaa !4
  %10 = icmp ne i64 %9, 0
  br i1 %10, label %11, label %16

11:                                               ; preds = %3
  %12 = load ptr, ptr %6, align 8, !tbaa !23
  %13 = getelementptr inbounds nuw %struct.WFILE, ptr %12, i32 0, i32 4
  %14 = load ptr, ptr %13, align 8, !tbaa !19
  %15 = icmp eq ptr %14, null
  br i1 %15, label %16, label %17

16:                                               ; preds = %11, %3
  store i32 1, ptr %8, align 4
  br label %79

17:                                               ; preds = %11
  %18 = load ptr, ptr %6, align 8, !tbaa !23
  %19 = getelementptr inbounds nuw %struct.WFILE, ptr %18, i32 0, i32 5
  %20 = load ptr, ptr %19, align 8, !tbaa !20
  %21 = load ptr, ptr %6, align 8, !tbaa !23
  %22 = getelementptr inbounds nuw %struct.WFILE, ptr %21, i32 0, i32 4
  %23 = load ptr, ptr %22, align 8, !tbaa !19
  %24 = ptrtoint ptr %20 to i64
  %25 = ptrtoint ptr %23 to i64
  %26 = sub i64 %24, %25
  store i64 %26, ptr %7, align 8, !tbaa !4
  %27 = load ptr, ptr %6, align 8, !tbaa !23
  %28 = getelementptr inbounds nuw %struct.WFILE, ptr %27, i32 0, i32 0
  %29 = load ptr, ptr %28, align 8, !tbaa !13
  %30 = icmp ne ptr %29, null
  br i1 %30, label %31, label %55

31:                                               ; preds = %17
  %32 = load i64, ptr %5, align 8, !tbaa !4
  %33 = load i64, ptr %7, align 8, !tbaa !4
  %34 = icmp sle i64 %32, %33
  br i1 %34, label %35, label %46

35:                                               ; preds = %31
  %36 = load ptr, ptr %6, align 8, !tbaa !23
  %37 = getelementptr inbounds nuw %struct.WFILE, ptr %36, i32 0, i32 4
  %38 = load ptr, ptr %37, align 8, !tbaa !19
  %39 = load ptr, ptr %4, align 8, !tbaa !23
  %40 = load i64, ptr %5, align 8, !tbaa !4
  call void @llvm.memcpy.p0.p0.i64(ptr align 1 %38, ptr align 1 %39, i64 %40, i1 false)
  %41 = load i64, ptr %5, align 8, !tbaa !4
  %42 = load ptr, ptr %6, align 8, !tbaa !23
  %43 = getelementptr inbounds nuw %struct.WFILE, ptr %42, i32 0, i32 4
  %44 = load ptr, ptr %43, align 8, !tbaa !19
  %45 = getelementptr i8, ptr %44, i64 %41
  store ptr %45, ptr %43, align 8, !tbaa !19
  br label %54

46:                                               ; preds = %31
  %47 = load ptr, ptr %6, align 8, !tbaa !23
  call void @w_flush(ptr noundef %47)
  %48 = load ptr, ptr %4, align 8, !tbaa !23
  %49 = load i64, ptr %5, align 8, !tbaa !4
  %50 = load ptr, ptr %6, align 8, !tbaa !23
  %51 = getelementptr inbounds nuw %struct.WFILE, ptr %50, i32 0, i32 0
  %52 = load ptr, ptr %51, align 8, !tbaa !13
  %53 = call i64 @fwrite(ptr noundef %48, i64 noundef 1, i64 noundef %49, ptr noundef %52)
  br label %54

54:                                               ; preds = %46, %35
  br label %78

55:                                               ; preds = %17
  %56 = load i64, ptr %5, align 8, !tbaa !4
  %57 = load i64, ptr %7, align 8, !tbaa !4
  %58 = icmp sle i64 %56, %57
  br i1 %58, label %66, label %59

59:                                               ; preds = %55
  %60 = load ptr, ptr %6, align 8, !tbaa !23
  %61 = load i64, ptr %5, align 8, !tbaa !4
  %62 = load i64, ptr %7, align 8, !tbaa !4
  %63 = sub i64 %61, %62
  %64 = call i32 @w_reserve(ptr noundef %60, i64 noundef %63)
  %65 = icmp ne i32 %64, 0
  br i1 %65, label %66, label %77

66:                                               ; preds = %59, %55
  %67 = load ptr, ptr %6, align 8, !tbaa !23
  %68 = getelementptr inbounds nuw %struct.WFILE, ptr %67, i32 0, i32 4
  %69 = load ptr, ptr %68, align 8, !tbaa !19
  %70 = load ptr, ptr %4, align 8, !tbaa !23
  %71 = load i64, ptr %5, align 8, !tbaa !4
  call void @llvm.memcpy.p0.p0.i64(ptr align 1 %69, ptr align 1 %70, i64 %71, i1 false)
  %72 = load i64, ptr %5, align 8, !tbaa !4
  %73 = load ptr, ptr %6, align 8, !tbaa !23
  %74 = getelementptr inbounds nuw %struct.WFILE, ptr %73, i32 0, i32 4
  %75 = load ptr, ptr %74, align 8, !tbaa !19
  %76 = getelementptr i8, ptr %75, i64 %72
  store ptr %76, ptr %74, align 8, !tbaa !19
  br label %77

77:                                               ; preds = %66, %59
  br label %78

78:                                               ; preds = %77, %54
  store i32 0, ptr %8, align 4
  br label %79

79:                                               ; preds = %78, %16
  call void @llvm.lifetime.end.p0(i64 8, ptr %7) #11
  %80 = load i32, ptr %8, align 4
  switch i32 %80, label %82 [
    i32 0, label %81
    i32 1, label %81
  ]

81:                                               ; preds = %79, %79
  ret void

82:                                               ; preds = %79
  unreachable
}