; Function Attrs: nounwind uwtable
define internal fastcc void @w_string(ptr noundef captures(none) %0, i64 noundef %1, ptr noundef nonnull %2) unnamed_addr #0 {
  %.not = icmp eq i64 %1, 0
  br i1 %.not, label %w_reserve.exit.thread, label %4

4:                                                ; preds = %3
  %5 = getelementptr inbounds nuw i8, ptr %2, i64 24
  %6 = load ptr, ptr %5, align 8, !tbaa !15
  %7 = icmp eq ptr %6, null
  br i1 %7, label %w_reserve.exit.thread, label %8

8:                                                ; preds = %4
  %9 = getelementptr inbounds nuw i8, ptr %2, i64 32
  %10 = load ptr, ptr %9, align 8, !tbaa !16
  %11 = ptrtoint ptr %10 to i64
  %12 = ptrtoint ptr %6 to i64
  %13 = sub i64 %11, %12
  %14 = load ptr, ptr %2, align 8, !tbaa !4
  %.not27 = icmp eq ptr %14, null
  %.not28 = icmp sgt i64 %1, %13
  br i1 %.not27, label %28, label %15

15:                                               ; preds = %8
  br i1 %.not28, label %19, label %16

16:                                               ; preds = %15
  tail call void @llvm.memcpy.p0.p0.i64(ptr nonnull align 1 %6, ptr align 1 %0, i64 %1, i1 false)
  %17 = load ptr, ptr %5, align 8, !tbaa !15
  %18 = getelementptr i8, ptr %17, i64 %1
  store ptr %18, ptr %5, align 8, !tbaa !15
  br label %w_reserve.exit.thread

19:                                               ; preds = %15
  %20 = getelementptr inbounds nuw i8, ptr %2, i64 40
  %21 = load ptr, ptr %20, align 8, !tbaa !14
  %22 = ptrtoint ptr %21 to i64
  %23 = sub i64 %12, %22
  %24 = tail call i64 @fwrite(ptr noundef %21, i64 noundef 1, i64 noundef %23, ptr noundef nonnull %14)
  %25 = load ptr, ptr %20, align 8, !tbaa !14
  store ptr %25, ptr %5, align 8, !tbaa !15
  %26 = load ptr, ptr %2, align 8, !tbaa !4
  %27 = tail call i64 @fwrite(ptr noundef %0, i64 noundef 1, i64 noundef %1, ptr noundef %26)
  br label %w_reserve.exit.thread

28:                                               ; preds = %8
  br i1 %.not28, label %29, label %54

29:                                               ; preds = %28
  %30 = sub i64 %1, %13
  %31 = getelementptr inbounds nuw i8, ptr %2, i64 40
  %32 = load ptr, ptr %31, align 8, !tbaa !14
  %33 = ptrtoint ptr %32 to i64
  %34 = sub i64 %12, %33
  %35 = getelementptr inbounds nuw i8, ptr %2, i64 16
  %36 = load ptr, ptr %35, align 8, !tbaa !18
  %37 = getelementptr i8, ptr %36, i64 16
  %.val.i = load i64, ptr %37, align 8, !tbaa !19
  %38 = icmp sgt i64 %.val.i, 16777216
  %39 = lshr i64 %.val.i, 3
  %40 = add nsw i64 %.val.i, 1024
  %.0.i = select i1 %38, i64 %39, i64 %40
  %41 = tail call i64 @llvm.smax.i64(i64 %.0.i, i64 %30)
  %42 = sub i64 9223372036854775807, %.val.i
  %43 = icmp sgt i64 %41, %42
  br i1 %43, label %44, label %46

44:                                               ; preds = %29
  %45 = getelementptr inbounds nuw i8, ptr %2, i64 8
  store i32 3, ptr %45, align 8, !tbaa !24
  br label %w_reserve.exit.thread

46:                                               ; preds = %29
  %47 = add i64 %41, %.val.i
  %48 = tail call i32 @_PyBytes_Resize(ptr noundef nonnull %35, i64 noundef %47) #11
  %.not38.i = icmp eq i32 %48, 0
  br i1 %.not38.i, label %w_reserve.exit, label %49

49:                                               ; preds = %46
  tail call void @llvm.memset.p0.i64(ptr noundef nonnull align 8 dereferenceable(24) %5, i8 0, i64 24, i1 false)
  br label %w_reserve.exit.thread

w_reserve.exit:                                   ; preds = %46
  %50 = load ptr, ptr %35, align 8, !tbaa !18
  %51 = getelementptr inbounds nuw i8, ptr %50, i64 32
  store ptr %51, ptr %31, align 8, !tbaa !14
  %52 = getelementptr i8, ptr %51, i64 %34
  store ptr %52, ptr %5, align 8, !tbaa !15
  %53 = getelementptr i8, ptr %51, i64 %47
  store ptr %53, ptr %9, align 8, !tbaa !16
  br label %54

54:                                               ; preds = %w_reserve.exit, %28
  %55 = phi ptr [ %52, %w_reserve.exit ], [ %6, %28 ]
  tail call void @llvm.memcpy.p0.p0.i64(ptr align 1 %55, ptr align 1 %0, i64 %1, i1 false)
  %56 = load ptr, ptr %5, align 8, !tbaa !15
  %57 = getelementptr i8, ptr %56, i64 %1
  store ptr %57, ptr %5, align 8, !tbaa !15
  br label %w_reserve.exit.thread

w_reserve.exit.thread:                            ; preds = %49, %44, %19, %16, %54, %3, %4
  ret void
}